Certificate:
    Data:
        Version: 3 (0x2)
        Serial Number:
            db:5f:7c:e1:00:00:00:00:53:28:1c:9f
    Signature Algorithm: sha256WithRSAEncryption
        Issuer: C=HR, O=Financijska agencija, CN=Fina Demo Root CA
        Validity
            Not Before: Mar 18 09:45:00 2014 GMT
            Not After : Mar 18 10:15:00 2034 GMT
        Subject: C=HR, O=Financijska agencija, CN=Fina Demo Root CA
        Subject Public Key Info:
            Public Key Algorithm: rsaEncryption
                Public-Key: (4096 bit)
                Modulus:
                    00:97:cb:dc:39:70:59:ce:e2:e2:c3:5b:0e:1b:85:
                    d4:58:71:a6:d0:57:dc:9b:64:5e:29:74:e2:e5:e0:
                    cd:19:9f:aa:e9:19:e2:34:82:4e:97:7d:55:d7:35:
                    c6:2c:de:b3:46:31:b7:da:31:b5:ac:48:0c:a5:8b:
                    b6:74:3b:96:9e:ad:bb:2a:27:ef:ee:61:e5:9e:3f:
                    51:9e:9d:dc:24:ca:a6:cf:f6:17:d5:20:60:0c:c6:
                    d4:a5:d8:22:25:2b:18:38:6f:24:91:07:85:11:b7:
                    c0:77:1a:6a:0c:91:e1:81:af:d2:43:26:97:3c:3f:
                    12:6a:77:b4:d6:55:98:77:b8:34:43:74:5c:2c:c2:
                    42:9e:99:9f:c0:c6:a1:fa:37:2a:e8:5f:bc:48:b9:
                    3a:44:86:85:1d:24:3d:2b:3b:68:45:fa:e7:84:90:
                    82:9f:fe:ae:ec:e6:8e:d2:2d:a3:01:9b:8c:43:3f:
                    d5:0d:69:0f:c1:83:7b:9d:d5:4a:93:2b:91:19:bf:
                    b5:8c:f0:18:bc:24:00:ac:06:27:f8:72:9e:b8:41:
                    c6:fe:81:98:43:45:79:b8:44:d2:ae:f6:fb:e3:e4:
                    4f:81:6c:37:fe:70:30:f1:5a:0a:5a:f3:52:3e:b0:
                    06:84:e8:ae:e2:1e:20:c9:ee:b7:9c:5d:fd:59:e4:
                    90:de:70:37:ca:38:b7:31:d3:92:ed:ce:0e:8b:45:
                    17:c2:9b:ff:f9:30:9a:c4:6a:c4:4b:f0:8b:70:f3:
                    e0:6e:f4:c5:80:3c:f9:ec:ac:6f:42:ec:b8:ed:4c:
                    36:6a:f1:cf:6a:18:39:dd:a5:1b:58:97:11:07:84:
                    57:51:91:14:cf:48:1f:6e:70:ef:f8:8c:04:e2:03:
                    5f:8e:87:86:b7:c2:8e:a8:55:b9:62:00:2c:1a:1d:
                    9c:8b:bd:79:a8:9d:e0:f0:1f:1c:24:f1:3b:25:db:
                    ea:7e:64:13:97:b4:2b:ce:dc:77:d4:55:45:9e:ca:
                    82:51:f2:7d:3a:8b:49:b1:7d:25:de:c1:a8:dc:bc:
                    6f:30:4e:73:c8:69:a5:50:9b:91:6d:02:fa:e7:2a:
                    50:8e:93:d9:0b:1b:c9:6f:35:23:5b:0e:0b:92:29:
                    37:a5:37:00:31:16:80:6d:76:c3:8a:5d:80:11:28:
                    25:76:eb:22:33:25:33:4d:52:4d:f1:9e:dd:ca:75:
                    2a:32:6a:93:1d:1d:a4:f1:98:a0:e6:d9:fe:fc:36:
                    de:ad:8e:ec:e1:ae:36:c2:c9:b9:a0:12:dd:33:78:
                    50:c4:a0:0b:a1:b1:3a:61:25:a2:d9:45:99:c8:4a:
                    94:81:38:15:c9:6b:71:65:ce:a9:45:a4:6d:16:39:
                    4a:9d:1f
                Exponent: 65537 (0x10001)
        X509v3 extensions:
            X509v3 Key Usage: critical
                Certificate Sign, CRL Sign
            X509v3 Basic Constraints: critical
                CA:TRUE
            X509v3 Authority Key Identifier:
                keyid:5F:6F:5B:39:C9:7F:41:E6:E6:91:15:FA:A1:B6:B5:B2:E7:82:55:D5

            X509v3 Subject Key Identifier:
                5F:6F:5B:39:C9:7F:41:E6:E6:91:15:FA:A1:B6:B5:B2:E7:82:55:D5
    Signature Algorithm: sha256WithRSAEncryption
         92:25:03:ea:18:f8:66:73:c4:86:43:6d:da:09:e3:e3:39:71:
         79:de:43:47:e5:8e:59:35:b7:a1:e9:f8:d6:b7:9b:42:f6:ed:
         1f:c9:51:b1:2d:88:62:c2:ca:47:de:d3:37:31:48:a3:90:1a:
         9e:b9:3d:00:0e:3a:f0:bf:f9:ab:89:6f:79:b5:de:0a:92:8b:
         6e:b5:f9:98:ac:93:de:4f:a6:5b:3c:8d:15:1f:ee:32:60:d3:
         ee:61:4e:3f:b8:81:32:f2:2d:dd:4b:17:76:86:6e:4c:bc:16:
         a4:6c:db:7e:27:81:95:01:e4:ff:ce:d7:03:66:dc:68:a5:8a:
         c0:c5:de:7c:fa:ad:d2:0f:7a:40:1e:7d:6f:7a:f5:0a:c2:9a:
         b1:6b:86:cc:4a:a8:2b:d0:4a:b8:c8:45:12:50:b4:5f:32:b5:
         f4:77:45:99:5e:80:52:dd:5a:12:ac:39:6d:17:6e:a0:c8:e9:
         12:0d:fb:a7:b6:63:42:5e:95:0a:73:16:c1:38:f2:d5:3b:70:
         fb:51:fd:7f:7d:1d:0d:13:bf:4a:08:e2:6d:b9:4e:2a:b0:a9:
         6b:2c:47:9f:25:0b:7b:69:ad:79:90:23:5f:93:8c:68:01:01:
         b4:86:2d:59:2f:d7:b7:89:5c:aa:c4:64:03:f7:ab:42:c4:c5:
         c3:61:03:ed:f8:fb:16:d6:e2:f2:4e:d6:ef:74:53:a9:c3:3e:
         3e:e3:75:1f:aa:34:5e:63:54:ed:39:20:1f:d7:e0:3e:79:70:
         f4:4f:34:10:54:16:56:85:45:3a:6d:1e:31:57:e1:b9:cd:b8:
         5c:76:30:23:96:a2:c6:c6:63:d2:65:38:30:c9:9b:6d:e4:96:
         de:7e:42:cc:bd:2e:5a:26:8e:71:50:96:80:4a:0e:f2:79:16:
         85:79:f1:91:3d:80:48:8c:57:9c:d4:e1:85:8f:d3:1c:f0:5a:
         64:34:92:f5:3d:e9:ba:ea:93:9b:a8:cd:5c:7f:cb:f1:9c:84:
         37:c9:91:ee:26:0a:b4:f8:4b:6c:88:e8:d9:25:05:92:03:53:
         e1:36:22:f2:2e:db:1f:76:24:10:2d:35:dc:41:38:48:13:ce:
         fe:b9:7d:64:f0:14:8e:7e:d3:3e:53:eb:ec:a7:f5:e4:07:50:
         66:6c:86:0f:d8:ad:a4:15:6e:b6:72:a3:ef:df:5d:69:e3:f6:
         3d:e1:86:f4:9e:d1:cf:ea:3e:67:f8:e9:90:e7:5d:eb:01:6e:
         3f:55:e5:4c:04:77:87:b9:6e:87:39:6f:41:3d:82:86:bb:a3:
         b6:1d:33:0e:55:11:fe:a4:15:90:a4:ce:11:aa:e4:d1:bc:83:
         8f:03:20:2a:eb:ee:41:19
-----BEGIN CERTIFICATE-----
MIIFejCCA2KgAwIBAgINANtffOEAAAAAUygcnzANBgkqhkiG9w0BAQsFADBIMQsw
CQYDVQQGEwJIUjEdMBsGA1UEChMURmluYW5jaWpza2EgYWdlbmNpamExGjAYBgNV
BAMTEUZpbmEgRGVtbyBSb290IENBMB4XDTE0MDMxODA5NDUwMFoXDTM0MDMxODEw
MTUwMFowSDELMAkGA1UEBhMCSFIxHTAbBgNVBAoTFEZpbmFuY2lqc2thIGFnZW5j
aWphMRowGAYDVQQDExFGaW5hIERlbW8gUm9vdCBDQTCCAiIwDQYJKoZIhvcNAQEB
BQADggIPADCCAgoCggIBAJfL3DlwWc7i4sNbDhuF1FhxptBX3JtkXil04uXgzRmf
qukZ4jSCTpd9Vdc1xizes0Yxt9oxtaxIDKWLtnQ7lp6tuyon7+5h5Z4/UZ6d3CTK
ps/2F9UgYAzG1KXYIiUrGDhvJJEHhRG3wHcaagyR4YGv0kMmlzw/Emp3tNZVmHe4
NEN0XCzCQp6Zn8DGofo3KuhfvEi5OkSGhR0kPSs7aEX654SQgp/+ruzmjtItowGb
jEM/1Q1pD8GDe53VSpMrkRm/tYzwGLwkAKwGJ/hynrhBxv6BmENFebhE0q72++Pk
T4FsN/5wMPFaClrzUj6wBoToruIeIMnut5xd/VnkkN5wN8o4tzHTku3ODotFF8Kb
//kwmsRqxEvwi3Dz4G70xYA8+eysb0LsuO1MNmrxz2oYOd2lG1iXEQeEV1GRFM9I
H25w7/iMBOIDX46HhrfCjqhVuWIALBodnIu9eaid4PAfHCTxOyXb6n5kE5e0K87c
d9RVRZ7KglHyfTqLSbF9Jd7BqNy8bzBOc8hppVCbkW0C+ucqUI6T2QsbyW81I1sO
C5IpN6U3ADEWgG12w4pdgBEoJXbrIjMlM01STfGe3cp1KjJqkx0dpPGYoObZ/vw2
3q2O7OGuNsLJuaAS3TN4UMSgC6GxOmElotlFmchKlIE4FclrcWXOqUWkbRY5Sp0f
AgMBAAGjYzBhMA4GA1UdDwEB/wQEAwIBBjAPBgNVHRMBAf8EBTADAQH/MB8GA1Ud
IwQYMBaAFF9vWznJf0Hm5pEV+qG2tbLnglXVMB0GA1UdDgQWBBRfb1s5yX9B5uaR
FfqhtrWy54JV1TANBgkqhkiG9w0BAQsFAAOCAgEAkiUD6hj4ZnPEhkNt2gnj4zlx
ed5DR+WOWTW3oen41rebQvbtH8lRsS2IYsLKR97TNzFIo5Aanrk9AA468L/5q4lv
ebXeCpKLbrX5mKyT3k+mWzyNFR/uMmDT7mFOP7iBMvIt3UsXdoZuTLwWpGzbfieB
lQHk/87XA2bcaKWKwMXefPqt0g96QB59b3r1CsKasWuGzEqoK9BKuMhFElC0XzK1
9HdFmV6AUt1aEqw5bRduoMjpEg37p7ZjQl6VCnMWwTjy1Ttw+1H9f30dDRO/Sgji
bblOKrCpayxHnyULe2mteZAjX5OMaAEBtIYtWS/Xt4lcqsRkA/erQsTFw2ED7fj7
Ftbi8k7W73RTqcM+PuN1H6o0XmNU7TkgH9fgPnlw9E80EFQWVoVFOm0eMVfhuc24
XHYwI5aixsZj0mU4MMmbbeSW3n5CzL0uWiaOcVCWgEoO8nkWhXnxkT2ASIxXnNTh
hY/THPBaZDSS9T3puuqTm6jNXH/L8ZyEN8mR7iYKtPhLbIjo2SUFkgNT4TYi8i7b
H3YkEC013EE4SBPO/rl9ZPAUjn7TPlPr7Kf15AdQZmyGD9itpBVutnKj799daeP2
PeGG9J7Rz+o+Z/jpkOdd6wFuP1XlTAR3h7luhzlvQT2Chrujth0zDlUR/qQVkKTO
Eark0byDjwMgKuvuQRk=
-----END CERTIFICATE-----
Certificate:
    Data:
        Version: 3 (0x2)
        Serial Number:
            ef:a5:00:76:16:a7:02:9c:00:00:00:00:5d:93:24:25
        Signature Algorithm: sha256WithRSAEncryption
        Issuer: C = HR, O = Financijska agencija, CN = Fina Demo Root CA
        Validity
            Not Before: Jul 31 12:30:18 2020 GMT
            Not After : Jul 31 12:30:18 2030 GMT
        Subject: C = HR, O = Financijska agencija, CN = Fina Demo CA 2020
        Subject Public Key Info:
            Public Key Algorithm: rsaEncryption
                RSA Public-Key: (4096 bit)
                Modulus:
                    00:c6:55:0b:37:96:f3:80:5a:f7:bf:35:50:d7:1b:
                    23:f7:cf:13:0a:26:78:bb:ac:b0:ab:02:31:70:1a:
                    97:72:0b:80:35:81:4d:05:2e:38:00:a0:02:3e:27:
                    83:ea:83:54:53:84:71:60:c2:e7:c6:53:83:84:54:
                    54:f6:ec:8d:f8:c7:94:49:7b:39:d7:ed:64:e4:49:
                    00:58:9b:6c:cb:f7:06:1c:bd:ab:57:a8:16:8f:f8:
                    02:3f:40:90:7b:8f:c8:1a:32:b6:2e:07:51:11:2d:
                    10:13:49:8f:32:94:ed:15:d9:79:c4:e8:d8:b3:7a:
                    18:98:3e:0c:f3:21:19:c1:e7:c1:91:28:c7:96:32:
                    b5:58:63:6d:83:8d:79:71:01:ca:a2:1c:66:f6:3a:
                    90:a1:d7:55:65:39:d3:b9:54:af:70:a3:dc:dc:a7:
                    bc:00:98:be:42:68:64:63:b8:4c:e9:95:cd:7b:7a:
                    00:53:5e:ba:5f:e3:1a:6b:9b:d1:40:d3:75:ab:f5:
                    b8:d7:a9:13:af:69:73:81:ec:75:cd:2c:26:08:32:
                    84:09:b8:81:97:38:2f:48:26:50:85:fc:99:ce:c3:
                    ae:70:15:c5:94:9b:6b:9d:4c:c2:10:fe:e3:51:4f:
                    40:73:2a:c3:90:32:e7:b0:fb:db:be:8f:1e:ea:b0:
                    5c:71:2f:4f:9f:bb:45:cb:13:24:ab:94:a4:bd:21:
                    2f:7c:00:54:52:11:25:49:bc:30:23:4e:8f:ce:b8:
                    b5:1f:0b:21:60:6f:3c:7c:43:62:d0:d2:ce:f3:16:
                    28:f6:c1:1c:80:21:04:80:de:f9:40:01:b7:ec:de:
                    fb:0d:51:1d:e4:04:93:f4:85:2b:b2:5a:58:75:ff:
                    5f:cd:ce:29:bf:a0:72:0b:a7:ea:12:7b:56:5e:ea:
                    76:5f:26:6b:eb:3b:18:a2:50:ec:5d:6f:e4:91:7d:
                    fe:3b:cb:cd:4a:14:99:2d:7a:23:44:0b:4f:f6:01:
                    58:f0:71:9f:5c:26:6e:c9:cf:68:66:10:8f:76:1c:
                    73:34:73:7d:1b:6a:6e:67:8b:d4:33:a4:9d:da:7a:
                    03:02:26:75:49:1e:81:b1:c8:db:7a:bf:41:7d:6a:
                    32:6a:01:e2:b8:7b:93:4b:fe:3a:72:17:21:86:63:
                    2a:f0:10:c6:6b:98:f4:fe:ec:6d:d9:73:20:9f:a3:
                    bb:38:dd:30:2d:02:b3:d1:1c:97:00:8d:88:9e:ec:
                    45:3a:ff:7f:50:3b:e4:0e:2d:d3:cf:4a:9d:85:28:
                    72:51:2a:ed:a0:0b:2e:38:1c:e8:9b:26:40:b1:f6:
                    f5:c6:6a:f1:8d:11:f3:0f:6a:9d:12:c9:de:40:0b:
                    10:cd:61
                Exponent: 65537 (0x10001)
        X509v3 extensions:
            X509v3 Key Usage: critical
                Certificate Sign, CRL Sign
            X509v3 Basic Constraints: critical
                CA:TRUE, pathlen:0
            X509v3 Certificate Policies:
                Policy: 1.3.124.1104.5.1.1
                  CPS: http://demo-pki.fina.hr/cps/cpdemoroot1-0.pdf
                  CPS: http://demo-pki.fina.hr/cps/cpdemoroot1-0-en.pdf

            Authority Information Access:
                OCSP - URI:http://demo2014-ocsp.fina.hr
                CA Issuers - URI:http://demo-pki.fina.hr/certifikati/demo2014_root_ca.cer

            X509v3 CRL Distribution Points:

                Full Name:
                  URI:http://demo-pki.fina.hr/crl/DemoRoot2014.crl

            X509v3 Authority Key Identifier:
                keyid:5F:6F:5B:39:C9:7F:41:E6:E6:91:15:FA:A1:B6:B5:B2:E7:82:55:D5

            X509v3 Subject Key Identifier:
                95:AF:52:D5:C2:E9:D7:37:84:3E:6E:49:8F:C9:1F:EA:5C:2B:5F:CF
    Signature Algorithm: sha256WithRSAEncryption
         36:cc:b4:b9:41:2b:58:a5:cc:b0:5d:a2:eb:59:a1:e5:92:dd:
         70:9c:8b:b4:32:58:33:ea:39:f5:03:e4:ad:d9:14:91:c8:6d:
         44:e6:5b:76:15:8b:bb:a5:e5:65:09:67:65:ae:54:e7:fe:56:
         ef:11:4f:51:5c:58:72:8b:b8:9b:36:03:47:27:f1:5e:1e:c2:
         88:c1:67:56:ad:48:3c:bb:9e:7c:7e:d5:0a:2d:e5:82:83:fe:
         88:03:3e:a0:85:c8:9a:28:1c:ad:8c:40:87:5d:0d:1e:14:61:
         1d:c0:36:57:d1:91:36:09:d9:d0:5b:58:a7:ed:7a:47:c4:db:
         94:aa:41:6c:71:ea:9a:fa:e4:ff:92:10:e7:b3:ba:88:3a:3b:
         b8:d7:6c:a9:69:55:91:8d:16:89:8b:c4:84:ce:1b:59:e1:1f:
         ac:db:9c:06:f3:96:bc:c0:34:3a:07:88:03:f0:ec:14:8e:39:
         c1:04:d8:29:d1:f3:a9:29:56:53:02:27:64:90:0d:42:5f:8f:
         70:53:e4:02:0b:56:52:bf:87:88:3d:de:3d:38:ef:81:7a:cb:
         64:35:27:22:8e:4d:ce:bc:f6:0c:60:86:6f:7e:ea:f8:60:f1:
         48:3e:48:61:20:fa:32:fe:ff:d4:07:0a:da:05:7c:d2:a5:79:
         8a:c7:bb:c7:77:d5:a9:3b:da:3c:3c:c2:92:e9:ab:e8:12:3b:
         65:12:8c:a7:07:49:63:ac:7c:09:7f:a3:4e:3e:57:6c:c1:ad:
         a9:d4:f9:2e:81:a7:36:c0:54:92:6d:dd:ad:5b:92:a1:c1:67:
         0d:17:81:14:ed:ec:a9:6d:b6:5b:41:c9:21:4a:d7:ca:9f:aa:
         34:a4:aa:18:87:fc:b8:4f:72:df:a9:40:1b:60:5c:bb:20:a0:
         b5:0e:f7:74:12:c3:15:24:7c:df:cc:e9:ba:fb:af:55:0b:57:
         6c:a0:61:3b:f8:71:73:74:8f:7d:e5:be:97:9c:8b:77:f3:e5:
         1f:2d:34:54:08:11:7f:be:55:d0:03:59:58:6f:8c:cc:a5:b9:
         57:6c:6d:8c:d5:c7:0d:24:87:17:28:a6:9d:1e:bf:5a:45:62:
         e7:3d:4b:5b:6c:7e:39:c7:c8:7c:d3:fb:9b:f7:41:7f:7d:7c:
         1c:8a:bd:a2:63:c2:63:79:c5:2d:29:39:b6:a5:4f:40:aa:20:
         3b:b8:89:8c:6b:a6:b7:02:06:30:a1:da:80:c4:8f:ba:98:8b:
         99:ea:90:a0:be:ea:bd:22:1a:28:37:a4:b8:22:6a:a0:a0:f8:
         bc:de:82:b9:09:dc:bf:54:05:97:c7:ed:36:90:64:73:75:1e:
         39:a6:85:8e:ab:01:ff:c4
-----BEGIN CERTIFICATE-----
MIIG2TCCBMGgAwIBAgIRAO+lAHYWpwKcAAAAAF2TJCUwDQYJKoZIhvcNAQELBQAw
SDELMAkGA1UEBhMCSFIxHTAbBgNVBAoTFEZpbmFuY2lqc2thIGFnZW5jaWphMRow
GAYDVQQDExFGaW5hIERlbW8gUm9vdCBDQTAeFw0yMDA3MzExMjMwMThaFw0zMDA3
MzExMjMwMThaMEgxCzAJBgNVBAYTAkhSMR0wGwYDVQQKExRGaW5hbmNpanNrYSBh
Z2VuY2lqYTEaMBgGA1UEAxMRRmluYSBEZW1vIENBIDIwMjAwggIiMA0GCSqGSIb3
DQEBAQUAA4ICDwAwggIKAoICAQDGVQs3lvOAWve/NVDXGyP3zxMKJni7rLCrAjFw
GpdyC4A1gU0FLjgAoAI+J4Pqg1RThHFgwufGU4OEVFT27I34x5RJeznX7WTkSQBY
m2zL9wYcvatXqBaP+AI/QJB7j8gaMrYuB1ERLRATSY8ylO0V2XnE6NizehiYPgzz
IRnB58GRKMeWMrVYY22DjXlxAcqiHGb2OpCh11VlOdO5VK9wo9zcp7wAmL5CaGRj
uEzplc17egBTXrpf4xprm9FA03Wr9bjXqROvaXOB7HXNLCYIMoQJuIGXOC9IJlCF
/JnOw65wFcWUm2udTMIQ/uNRT0BzKsOQMuew+9u+jx7qsFxxL0+fu0XLEySrlKS9
IS98AFRSESVJvDAjTo/OuLUfCyFgbzx8Q2LQ0s7zFij2wRyAIQSA3vlAAbfs3vsN
UR3kBJP0hSuyWlh1/1/Nzim/oHILp+oSe1Ze6nZfJmvrOxiiUOxdb+SRff47y81K
FJkteiNEC0/2AVjwcZ9cJm7Jz2hmEI92HHM0c30bam5ni9QzpJ3aegMCJnVJHoGx
yNt6v0F9ajJqAeK4e5NL/jpyFyGGYyrwEMZrmPT+7G3ZcyCfo7s43TAtArPRHJcA
jYie7EU6/39QO+QOLdPPSp2FKHJRKu2gCy44HOibJkCx9vXGavGNEfMPap0Syd5A
CxDNYQIDAQABo4IBvDCCAbgwDgYDVR0PAQH/BAQDAgEGMBIGA1UdEwEB/wQIMAYB
Af8CAQAwgZIGA1UdIASBijCBhzCBhAYHK3yIUAUBATB5MDkGCCsGAQUFBwIBFi1o
dHRwOi8vZGVtby1wa2kuZmluYS5oci9jcHMvY3BkZW1vcm9vdDEtMC5wZGYwPAYI
KwYBBQUHAgEWMGh0dHA6Ly9kZW1vLXBraS5maW5hLmhyL2Nwcy9jcGRlbW9yb290
MS0wLWVuLnBkZjB+BggrBgEFBQcBAQRyMHAwKAYIKwYBBQUHMAGGHGh0dHA6Ly9k
ZW1vMjAxNC1vY3NwLmZpbmEuaHIwRAYIKwYBBQUHMAKGOGh0dHA6Ly9kZW1vLXBr
aS5maW5hLmhyL2NlcnRpZmlrYXRpL2RlbW8yMDE0X3Jvb3RfY2EuY2VyMD0GA1Ud
HwQ2MDQwMqAwoC6GLGh0dHA6Ly9kZW1vLXBraS5maW5hLmhyL2NybC9EZW1vUm9v
dDIwMTQuY3JsMB8GA1UdIwQYMBaAFF9vWznJf0Hm5pEV+qG2tbLnglXVMB0GA1Ud
DgQWBBSVr1LVwunXN4Q+bkmPyR/qXCtfzzANBgkqhkiG9w0BAQsFAAOCAgEANsy0
uUErWKXMsF2i61mh5ZLdcJyLtDJYM+o59QPkrdkUkchtROZbdhWLu6XlZQlnZa5U
5/5W7xFPUVxYcou4mzYDRyfxXh7CiMFnVq1IPLuefH7VCi3lgoP+iAM+oIXImigc
rYxAh10NHhRhHcA2V9GRNgnZ0FtYp+16R8TblKpBbHHqmvrk/5IQ57O6iDo7uNds
qWlVkY0WiYvEhM4bWeEfrNucBvOWvMA0OgeIA/DsFI45wQTYKdHzqSlWUwInZJAN
Ql+PcFPkAgtWUr+HiD3ePTjvgXrLZDUnIo5Nzrz2DGCGb37q+GDxSD5IYSD6Mv7/
1AcK2gV80qV5ise7x3fVqTvaPDzCkumr6BI7ZRKMpwdJY6x8CX+jTj5XbMGtqdT5
LoGnNsBUkm3drVuSocFnDReBFO3sqW22W0HJIUrXyp+qNKSqGIf8uE9y36lAG2Bc
uyCgtQ73dBLDFSR838zpuvuvVQtXbKBhO/hxc3SPfeW+l5yLd/PlHy00VAgRf75V
0ANZWG+MzKW5V2xtjNXHDSSHFyimnR6/WkVi5z1LW2x+OcfIfNP7m/dBf318HIq9
omPCY3nFLSk5tqVPQKogO7iJjGumtwIGMKHagMSPupiLmeqQoL7qvSIaKDekuCJq
oKD4vN6CuQncv1QFl8ftNpBkc3UeOaaFjqsB/8Q=
-----END CERTIFICATE-----
